target datalayout = "e-m:e-p270:32:32-p271:32:32-p272:64:64-i64:64-i128:128-f80:128-n8:16:32:64-S128"
target triple = "x86_64-pc-linux-gnu"

%"class.llvm::PointerIntPair" = type { %"struct.llvm::detail::PunnedPointer" }
%"struct.llvm::detail::PunnedPointer" = type { [8 x i8] }
%"class.clang::CharUnits" = type { i64 }
%"class.clang::QualType" = type { %"class.llvm::PointerIntPair.0" }
%"class.llvm::PointerIntPair.0" = type { %"struct.llvm::detail::PunnedPointer.1" }
%"struct.llvm::detail::PunnedPointer.1" = type { [8 x i8] }
%"class.clang::CodeGen::Address" = type { %"class.llvm::PointerIntPair", ptr, %"class.clang::CharUnits", %"class.clang::CodeGen::CGPointerAuthInfo", ptr }
%"class.clang::CodeGen::CGPointerAuthInfo" = type { i8, ptr }
%"class.llvm::FoldingSetBase::Node" = type { ptr }
%"class.(anonymous namespace)::CXXByrefHelpers" = type { %"class.clang::CodeGen::BlockByrefHelpers", %"class.clang::QualType", ptr }
%"class.clang::CodeGen::BlockByrefHelpers" = type { ptr, %"class.llvm::FoldingSetBase::Node", ptr, ptr, %"class.clang::CharUnits" }

; Function Attrs: mustprogress nounwind uwtable
define internal void @_ZN12_GLOBAL__N_115CXXByrefHelpers8emitCopyERN5clang7CodeGen15CodeGenFunctionENS2_7AddressES5_(ptr noundef nonnull align 8 dereferenceable(56) %0, ptr noundef nonnull align 8 dereferenceable(6488) %1, ptr noundef byval(%"class.clang::CodeGen::Address") align 8 %2, ptr noundef byval(%"class.clang::CodeGen::Address") align 8 %3) unnamed_addr #0 align 2 {
  %5 = alloca ptr, align 8
  %6 = alloca ptr, align 8
  %7 = alloca %"class.clang::CodeGen::Address", align 8
  %8 = alloca %"class.clang::CodeGen::Address", align 8
  store ptr %0, ptr %5, align 8
  store ptr %1, ptr %6, align 8
  %9 = load ptr, ptr %5, align 8
  %10 = getelementptr inbounds nuw %"class.(anonymous namespace)::CXXByrefHelpers", ptr %9, i32 0, i32 2
  %11 = load ptr, ptr %10, align 8
  %12 = icmp ne ptr %11, null
  br i1 %12, label %14, label %13

13:                                               ; preds = %4
  br label %18

14:                                               ; preds = %4
  %15 = load ptr, ptr %6, align 8
  call void @llvm.memcpy.p0.p0.i64(ptr align 8 %7, ptr align 8 %2, i64 48, i1 false)
  call void @llvm.memcpy.p0.p0.i64(ptr align 8 %8, ptr align 8 %3, i64 48, i1 false)
  %16 = getelementptr inbounds nuw %"class.(anonymous namespace)::CXXByrefHelpers", ptr %9, i32 0, i32 2
  %17 = load ptr, ptr %16, align 8
  call void @_ZN5clang7CodeGen15CodeGenFunction26EmitSynthesizedCXXCopyCtorENS0_7AddressES2_PKNS_4ExprE(ptr noundef nonnull align 8 dereferenceable(6488) %15, ptr noundef byval(%"class.clang::CodeGen::Address") align 8 %7, ptr noundef byval(%"class.clang::CodeGen::Address") align 8 %8, ptr noundef %17)
  br label %18

18:                                               ; preds = %14, %13
  ret void
}