; Function Attrs: mustprogress nounwind uwtable
define internal void @_ZN12_GLOBAL__N_115CXXByrefHelpers8emitCopyERN5clang7CodeGen15CodeGenFunctionENS2_7AddressES5_(ptr nocapture noundef nonnull readonly align 8 dereferenceable(56) %0, ptr noundef nonnull align 8 dereferenceable(6488) %1, ptr nocapture noundef readonly byval(%"class.clang::CodeGen::Address") align 8 %2, ptr nocapture noundef readonly byval(%"class.clang::CodeGen::Address") align 8 %3) unnamed_addr #0 align 2 {
  %5 = getelementptr inbounds nuw i8, ptr %0, i64 48
  %6 = load ptr, ptr %5, align 8
  %.not = icmp eq ptr %6, null
  br i1 %.not, label %8, label %7

7:                                                ; preds = %4
  tail call void @_ZN5clang7CodeGen15CodeGenFunction26EmitSynthesizedCXXCopyCtorENS0_7AddressES2_PKNS_4ExprE(ptr noundef nonnull align 8 dereferenceable(6488) %1, ptr noundef nonnull byval(%"class.clang::CodeGen::Address") align 8 %2, ptr noundef nonnull byval(%"class.clang::CodeGen::Address") align 8 %3, ptr noundef nonnull %6) #24
  br label %8

8:                                                ; preds = %4, %7
  ret void
}